target datalayout = "e-m:e-p270:32:32-p271:32:32-p272:64:64-i64:64-i128:128-f80:128-n8:16:32:64-S128"
target triple = "x86_64-pc-linux-gnu"

@stderr = external global ptr, align 8
@.str.6 = private unnamed_addr constant [47 x i8] c"usrc_writeArray(width=%ld) unrecognized width\0A\00", align 1
@.str.7 = private unnamed_addr constant [3 x i8] c",\0A\00", align 1
@.str.8 = private unnamed_addr constant [4 x i8] c"%ld\00", align 1
@.str.9 = private unnamed_addr constant [6 x i8] c"0x%lx\00", align 1

; Function Attrs: mustprogress uwtable
define void @usrc_writeArray(ptr noundef %0, ptr noundef %1, ptr noundef %2, i32 noundef %3, i32 noundef %4, ptr noundef %5, ptr noundef %6) #1 {
  %8 = alloca ptr, align 8
  %9 = alloca ptr, align 8
  %10 = alloca ptr, align 8
  %11 = alloca i32, align 4
  %12 = alloca i32, align 4
  %13 = alloca ptr, align 8
  %14 = alloca ptr, align 8
  %15 = alloca ptr, align 8
  %16 = alloca ptr, align 8
  %17 = alloca ptr, align 8
  %18 = alloca ptr, align 8
  %19 = alloca i64, align 8
  %20 = alloca i32, align 4
  %21 = alloca i32, align 4
  %22 = alloca i32, align 4
  store ptr %0, ptr %8, align 8, !tbaa !25
  store ptr %1, ptr %9, align 8, !tbaa !17
  store ptr %2, ptr %10, align 8, !tbaa !22
  store i32 %3, ptr %11, align 4, !tbaa !14
  store i32 %4, ptr %12, align 4, !tbaa !14
  store ptr %5, ptr %13, align 8, !tbaa !17
  store ptr %6, ptr %14, align 8, !tbaa !17
  call void @llvm.lifetime.start.p0(i64 8, ptr %15) #16
  call void @llvm.lifetime.start.p0(i64 8, ptr %16) #16
  call void @llvm.lifetime.start.p0(i64 8, ptr %17) #16
  call void @llvm.lifetime.start.p0(i64 8, ptr %18) #16
  call void @llvm.lifetime.start.p0(i64 8, ptr %19) #16
  call void @llvm.lifetime.start.p0(i64 4, ptr %20) #16
  call void @llvm.lifetime.start.p0(i64 4, ptr %21) #16
  store ptr null, ptr %15, align 8, !tbaa !17
  store ptr null, ptr %16, align 8, !tbaa !30
  store ptr null, ptr %17, align 8, !tbaa !20
  store ptr null, ptr %18, align 8, !tbaa !32
  %23 = load i32, ptr %11, align 4, !tbaa !14
  switch i32 %23, label %32 [
    i32 8, label %24
    i32 16, label %26
    i32 32, label %28
    i32 64, label %30
  ]

24:                                               ; preds = %7
  %25 = load ptr, ptr %10, align 8, !tbaa !22
  store ptr %25, ptr %15, align 8, !tbaa !17
  br label %37

26:                                               ; preds = %7
  %27 = load ptr, ptr %10, align 8, !tbaa !22
  store ptr %27, ptr %16, align 8, !tbaa !30
  br label %37

28:                                               ; preds = %7
  %29 = load ptr, ptr %10, align 8, !tbaa !22
  store ptr %29, ptr %17, align 8, !tbaa !20
  br label %37

30:                                               ; preds = %7
  %31 = load ptr, ptr %10, align 8, !tbaa !22
  store ptr %31, ptr %18, align 8, !tbaa !32
  br label %37

32:                                               ; preds = %7
  %33 = load ptr, ptr @stderr, align 8, !tbaa !25
  %34 = load i32, ptr %11, align 4, !tbaa !14
  %35 = sext i32 %34 to i64
  %36 = call i32 (ptr, ptr, ...) @fprintf(ptr noundef %33, ptr noundef @.str.6, i64 noundef %35) #16
  store i32 1, ptr %22, align 4
  br label %117

37:                                               ; preds = %30, %28, %26, %24
  %38 = load ptr, ptr %9, align 8, !tbaa !17
  %39 = icmp ne ptr %38, null
  br i1 %39, label %40, label %46

40:                                               ; preds = %37
  %41 = load ptr, ptr %8, align 8, !tbaa !25
  %42 = load ptr, ptr %9, align 8, !tbaa !17
  %43 = load i32, ptr %12, align 4, !tbaa !14
  %44 = sext i32 %43 to i64
  %45 = call i32 (ptr, ptr, ...) @fprintf(ptr noundef %41, ptr noundef %42, i64 noundef %44) #16
  br label %46

46:                                               ; preds = %40, %37
  store i32 0, ptr %21, align 4, !tbaa !14
  store i32 0, ptr %20, align 4, !tbaa !14
  br label %47

47:                                               ; preds = %104, %46
  %48 = load i32, ptr %20, align 4, !tbaa !14
  %49 = load i32, ptr %12, align 4, !tbaa !14
  %50 = icmp slt i32 %48, %49
  br i1 %50, label %51, label %109

51:                                               ; preds = %47
  %52 = load i32, ptr %20, align 4, !tbaa !14
  %53 = icmp sgt i32 %52, 0
  br i1 %53, label %54, label %67

54:                                               ; preds = %51
  %55 = load i32, ptr %21, align 4, !tbaa !14
  %56 = icmp slt i32 %55, 16
  br i1 %56, label %57, label %60

57:                                               ; preds = %54
  %58 = load ptr, ptr %8, align 8, !tbaa !25
  %59 = call i32 @fputc(i32 noundef 44, ptr noundef %58)
  br label %66

60:                                               ; preds = %54
  %61 = load ptr, ptr %8, align 8, !tbaa !25
  %62 = call i32 @fputs(ptr noundef @.str.7, ptr noundef %61)
  %63 = load ptr, ptr %13, align 8, !tbaa !17
  %64 = load ptr, ptr %8, align 8, !tbaa !25
  %65 = call i32 @fputs(ptr noundef %63, ptr noundef %64)
  store i32 0, ptr %21, align 4, !tbaa !14
  br label %66

66:                                               ; preds = %60, %57
  br label %67

67:                                               ; preds = %66, %51
  %68 = load i32, ptr %11, align 4, !tbaa !14
  switch i32 %68, label %96 [
    i32 8, label %69
    i32 16, label %76
    i32 32, label %83
    i32 64, label %90
  ]

69:                                               ; preds = %67
  %70 = load ptr, ptr %15, align 8, !tbaa !17
  %71 = load i32, ptr %20, align 4, !tbaa !14
  %72 = sext i32 %71 to i64
  %73 = getelementptr inbounds i8, ptr %70, i64 %72
  %74 = load i8, ptr %73, align 1, !tbaa !27
  %75 = zext i8 %74 to i64
  store i64 %75, ptr %19, align 8, !tbaa !18
  br label %97

76:                                               ; preds = %67
  %77 = load ptr, ptr %16, align 8, !tbaa !30
  %78 = load i32, ptr %20, align 4, !tbaa !14
  %79 = sext i32 %78 to i64
  %80 = getelementptr inbounds i16, ptr %77, i64 %79
  %81 = load i16, ptr %80, align 2, !tbaa !34
  %82 = zext i16 %81 to i64
  store i64 %82, ptr %19, align 8, !tbaa !18
  br label %97

83:                                               ; preds = %67
  %84 = load ptr, ptr %17, align 8, !tbaa !20
  %85 = load i32, ptr %20, align 4, !tbaa !14
  %86 = sext i32 %85 to i64
  %87 = getelementptr inbounds i32, ptr %84, i64 %86
  %88 = load i32, ptr %87, align 4, !tbaa !14
  %89 = zext i32 %88 to i64
  store i64 %89, ptr %19, align 8, !tbaa !18
  br label %97

90:                                               ; preds = %67
  %91 = load ptr, ptr %18, align 8, !tbaa !32
  %92 = load i32, ptr %20, align 4, !tbaa !14
  %93 = sext i32 %92 to i64
  %94 = getelementptr inbounds i64, ptr %91, i64 %93
  %95 = load i64, ptr %94, align 8, !tbaa !18
  store i64 %95, ptr %19, align 8, !tbaa !18
  br label %97

96:                                               ; preds = %67
  store i64 0, ptr %19, align 8, !tbaa !18
  br label %97

97:                                               ; preds = %96, %90, %83, %76, %69
  %98 = load ptr, ptr %8, align 8, !tbaa !25
  %99 = load i64, ptr %19, align 8, !tbaa !18
  %100 = icmp sle i64 %99, 9
  %101 = select i1 %100, ptr @.str.8, ptr @.str.9
  %102 = load i64, ptr %19, align 8, !tbaa !18
  %103 = call i32 (ptr, ptr, ...) @fprintf(ptr noundef %98, ptr noundef %101, i64 noundef %102) #16
  br label %104

104:                                              ; preds = %97
  %105 = load i32, ptr %20, align 4, !tbaa !14
  %106 = add nsw i32 %105, 1
  store i32 %106, ptr %20, align 4, !tbaa !14
  %107 = load i32, ptr %21, align 4, !tbaa !14
  %108 = add nsw i32 %107, 1
  store i32 %108, ptr %21, align 4, !tbaa !14
  br label %47, !llvm.loop !36

109:                                              ; preds = %47
  %110 = load ptr, ptr %14, align 8, !tbaa !17
  %111 = icmp ne ptr %110, null
  br i1 %111, label %112, label %116

112:                                              ; preds = %109
  %113 = load ptr, ptr %14, align 8, !tbaa !17
  %114 = load ptr, ptr %8, align 8, !tbaa !25
  %115 = call i32 @fputs(ptr noundef %113, ptr noundef %114)
  br label %116

116:                                              ; preds = %112, %109
  store i32 0, ptr %22, align 4
  br label %117

117:                                              ; preds = %116, %32
  call void @llvm.lifetime.end.p0(i64 4, ptr %21) #16
  call void @llvm.lifetime.end.p0(i64 4, ptr %20) #16
  call void @llvm.lifetime.end.p0(i64 8, ptr %19) #16
  call void @llvm.lifetime.end.p0(i64 8, ptr %18) #16
  call void @llvm.lifetime.end.p0(i64 8, ptr %17) #16
  call void @llvm.lifetime.end.p0(i64 8, ptr %16) #16
  call void @llvm.lifetime.end.p0(i64 8, ptr %15) #16
  %118 = load i32, ptr %22, align 4
  switch i32 %118, label %120 [
    i32 0, label %119
    i32 1, label %119
  ]

119:                                              ; preds = %117, %117
  ret void

120:                                              ; preds = %117
  unreachable
}