; Function Attrs: mustprogress nofree nounwind uwtable
define void @usrc_writeArray(ptr noundef captures(none) %0, ptr noundef readonly %1, ptr noundef readonly captures(none) %2, i32 noundef %3, i32 noundef %4, ptr noundef readonly captures(none) %5, ptr noundef readonly %6) local_unnamed_addr #13 {
  %8 = add i32 %3, -8
  %9 = tail call i32 @llvm.fshl.i32(i32 %8, i32 %8, i32 29)
  switch i32 %9, label %13 [
    i32 0, label %17
    i32 1, label %10
    i32 3, label %11
    i32 7, label %12
  ]

10:                                               ; preds = %7
  br label %17

11:                                               ; preds = %7
  br label %17

12:                                               ; preds = %7
  br label %17

13:                                               ; preds = %7
  %14 = load ptr, ptr @stderr, align 8, !tbaa !16
  %15 = sext i32 %3 to i64
  %16 = tail call i32 (ptr, ptr, ...) @fprintf(ptr noundef %14, ptr noundef nonnull @.str.6, i64 noundef %15) #28
  br label %53

17:                                               ; preds = %7, %12, %11, %10
  %.039 = phi ptr [ null, %12 ], [ null, %11 ], [ null, %10 ], [ %2, %7 ]
  %.038 = phi ptr [ null, %12 ], [ null, %11 ], [ %2, %10 ], [ null, %7 ]
  %.037 = phi ptr [ null, %12 ], [ %2, %11 ], [ null, %10 ], [ null, %7 ]
  %.036 = phi ptr [ %2, %12 ], [ null, %11 ], [ null, %10 ], [ null, %7 ]
  %.not = icmp eq ptr %1, null
  br i1 %.not, label %21, label %18

18:                                               ; preds = %17
  %19 = sext i32 %4 to i64
  %20 = tail call i32 (ptr, ptr, ...) @fprintf(ptr noundef %0, ptr noundef nonnull %1, i64 noundef %19) #24
  br label %21

21:                                               ; preds = %18, %17
  %22 = icmp sgt i32 %4, 0
  br i1 %22, label %.lr.ph.preheader, label %._crit_edge

.lr.ph.preheader:                                 ; preds = %21
  %wide.trip.count = zext nneg i32 %4 to i64
  br label %.lr.ph

.lr.ph:                                           ; preds = %.lr.ph.preheader, %.thread
  %indvars.iv = phi i64 [ 0, %.lr.ph.preheader ], [ %indvars.iv.next, %.thread ]
  %.049 = phi i32 [ 0, %.lr.ph.preheader ], [ %50, %.thread ]
  %.not43 = icmp eq i64 %indvars.iv, 0
  br i1 %.not43, label %30, label %23

23:                                               ; preds = %.lr.ph
  %24 = icmp slt i32 %.049, 16
  br i1 %24, label %25, label %27

25:                                               ; preds = %23
  %26 = tail call i32 @fputc(i32 noundef 44, ptr noundef %0)
  br label %30

27:                                               ; preds = %23
  %28 = tail call i64 @fwrite(ptr nonnull @.str.7, i64 2, i64 1, ptr %0)
  %29 = tail call i32 @fputs(ptr noundef %5, ptr noundef %0)
  br label %30

30:                                               ; preds = %25, %27, %.lr.ph
  %.1 = phi i32 [ %.049, %25 ], [ 0, %27 ], [ %.049, %.lr.ph ]
  switch i32 %9, label %.thread [
    i32 0, label %31
    i32 1, label %35
    i32 3, label %39
    i32 7, label %43
  ]

31:                                               ; preds = %30
  %32 = getelementptr inbounds nuw i8, ptr %.039, i64 %indvars.iv
  %33 = load i8, ptr %32, align 1, !tbaa !15
  %34 = zext i8 %33 to i64
  br label %46

35:                                               ; preds = %30
  %36 = getelementptr inbounds nuw i16, ptr %.038, i64 %indvars.iv
  %37 = load i16, ptr %36, align 2, !tbaa !18
  %38 = zext i16 %37 to i64
  br label %46

39:                                               ; preds = %30
  %40 = getelementptr inbounds nuw i32, ptr %.037, i64 %indvars.iv
  %41 = load i32, ptr %40, align 4, !tbaa !12
  %42 = zext i32 %41 to i64
  br label %46

43:                                               ; preds = %30
  %44 = getelementptr inbounds nuw i64, ptr %.036, i64 %indvars.iv
  %45 = load i64, ptr %44, align 8, !tbaa !20
  br label %46

46:                                               ; preds = %43, %39, %35, %31
  %.035 = phi i64 [ %45, %43 ], [ %42, %39 ], [ %38, %35 ], [ %34, %31 ]
  %47 = icmp slt i64 %.035, 10
  %spec.select = select i1 %47, ptr @.str.8, ptr @.str.9
  br label %.thread

.thread:                                          ; preds = %46, %30
  %.03545 = phi i64 [ 0, %30 ], [ %.035, %46 ]
  %48 = phi ptr [ @.str.8, %30 ], [ %spec.select, %46 ]
  %49 = tail call i32 (ptr, ptr, ...) @fprintf(ptr noundef %0, ptr noundef nonnull %48, i64 noundef %.03545) #24
  %indvars.iv.next = add nuw nsw i64 %indvars.iv, 1
  %50 = add nsw i32 %.1, 1
  %exitcond.not = icmp eq i64 %indvars.iv.next, %wide.trip.count
  br i1 %exitcond.not, label %._crit_edge, label %.lr.ph, !llvm.loop !22

._crit_edge:                                      ; preds = %.thread, %21
  %.not42 = icmp eq ptr %6, null
  br i1 %.not42, label %53, label %51

51:                                               ; preds = %._crit_edge
  %52 = tail call i32 @fputs(ptr noundef nonnull %6, ptr noundef %0)
  br label %53

53:                                               ; preds = %._crit_edge, %51, %13
  ret void
}